; ModuleID = '39/1857.c'
source_filename = "39/1857.c"
target datalayout = "e-m:e-p270:32:32-p271:32:32-p272:64:64-i64:64-f80:128-n8:16:32:64-S128"
target triple = "x86_64-pc-linux-gnu"

%struct.student = type { [21 x i8], i32, i32, i8, i8, i32, %struct.student*, %struct.student* }

@.str = private unnamed_addr constant [3 x i8] c"%d\00", align 1
@.str.1 = private unnamed_addr constant [15 x i8] c"%s%d%d %c %c%d\00", align 1
@.str.2 = private unnamed_addr constant [1 x i8] zeroinitializer, align 1
@.str.3 = private unnamed_addr constant [9 x i8] c"%s\0A%d\0A%d\00", align 1

; Function Attrs: noinline nounwind uwtable
define dso_local i32 @main() #0 {
  %1 = alloca i32, align 4
  %2 = alloca %struct.student*, align 8
  %3 = alloca i32, align 4
  %4 = alloca i32, align 4
  %5 = alloca i32, align 4
  %6 = alloca i32, align 4
  %7 = alloca i32, align 4
  %8 = alloca [21 x i8], align 16
  store i32 0, i32* %1, align 4
  store i32 0, i32* %5, align 4
  store i32 0, i32* %7, align 4
  %9 = call i32 (i8*, ...) @__isoc99_scanf(i8* getelementptr inbounds ([3 x i8], [3 x i8]* @.str, i64 0, i64 0), i32* %3)
  store i32 0, i32* %4, align 4
  br label %10

10:                                               ; preds = %111, %0
  %11 = load i32, i32* %4, align 4
  %12 = load i32, i32* %3, align 4
  %13 = icmp slt i32 %11, %12
  br i1 %13, label %14, label %114

14:                                               ; preds = %10
  %15 = call noalias i8* @malloc(i64 56) #3
  %16 = bitcast i8* %15 to %struct.student*
  store %struct.student* %16, %struct.student** %2, align 8
  %17 = load %struct.student*, %struct.student** %2, align 8
  %18 = getelementptr inbounds %struct.student, %struct.student* %17, i32 0, i32 0
  %19 = getelementptr inbounds [21 x i8], [21 x i8]* %18, i64 0, i64 0
  %20 = load %struct.student*, %struct.student** %2, align 8
  %21 = getelementptr inbounds %struct.student, %struct.student* %20, i32 0, i32 1
  %22 = load %struct.student*, %struct.student** %2, align 8
  %23 = getelementptr inbounds %struct.student, %struct.student* %22, i32 0, i32 2
  %24 = load %struct.student*, %struct.student** %2, align 8
  %25 = getelementptr inbounds %struct.student, %struct.student* %24, i32 0, i32 3
  %26 = load %struct.student*, %struct.student** %2, align 8
  %27 = getelementptr inbounds %struct.student, %struct.student* %26, i32 0, i32 4
  %28 = load %struct.student*, %struct.student** %2, align 8
  %29 = getelementptr inbounds %struct.student, %struct.student* %28, i32 0, i32 5
  %30 = call i32 (i8*, ...) @__isoc99_scanf(i8* getelementptr inbounds ([15 x i8], [15 x i8]* @.str.1, i64 0, i64 0), i8* %19, i32* %21, i32* %23, i8* %25, i8* %27, i32* %29)
  store i32 0, i32* %6, align 4
  %31 = load %struct.student*, %struct.student** %2, align 8
  %32 = getelementptr inbounds %struct.student, %struct.student* %31, i32 0, i32 1
  %33 = load i32, i32* %32, align 8
  %34 = icmp sgt i32 %33, 80
  br i1 %34, label %35, label %43

35:                                               ; preds = %14
  %36 = load %struct.student*, %struct.student** %2, align 8
  %37 = getelementptr inbounds %struct.student, %struct.student* %36, i32 0, i32 5
  %38 = load i32, i32* %37, align 4
  %39 = icmp sge i32 %38, 1
  br i1 %39, label %40, label %43

40:                                               ; preds = %35
  %41 = load i32, i32* %6, align 4
  %42 = add nsw i32 %41, 8000
  store i32 %42, i32* %6, align 4
  br label %43

43:                                               ; preds = %40, %35, %14
  %44 = load %struct.student*, %struct.student** %2, align 8
  %45 = getelementptr inbounds %struct.student, %struct.student* %44, i32 0, i32 1
  %46 = load i32, i32* %45, align 8
  %47 = icmp sgt i32 %46, 85
  br i1 %47, label %48, label %56

48:                                               ; preds = %43
  %49 = load %struct.student*, %struct.student** %2, align 8
  %50 = getelementptr inbounds %struct.student, %struct.student* %49, i32 0, i32 2
  %51 = load i32, i32* %50, align 4
  %52 = icmp sgt i32 %51, 80
  br i1 %52, label %53, label %56

53:                                               ; preds = %48
  %54 = load i32, i32* %6, align 4
  %55 = add nsw i32 %54, 4000
  store i32 %55, i32* %6, align 4
  br label %56

56:                                               ; preds = %53, %48, %43
  %57 = load %struct.student*, %struct.student** %2, align 8
  %58 = getelementptr inbounds %struct.student, %struct.student* %57, i32 0, i32 1
  %59 = load i32, i32* %58, align 8
  %60 = icmp sgt i32 %59, 90
  br i1 %60, label %61, label %64

61:                                               ; preds = %56
  %62 = load i32, i32* %6, align 4
  %63 = add nsw i32 %62, 2000
  store i32 %63, i32* %6, align 4
  br label %64

64:                                               ; preds = %61, %56
  %65 = load %struct.student*, %struct.student** %2, align 8
  %66 = getelementptr inbounds %struct.student, %struct.student* %65, i32 0, i32 1
  %67 = load i32, i32* %66, align 8
  %68 = icmp sgt i32 %67, 85
  br i1 %68, label %69, label %78

69:                                               ; preds = %64
  %70 = load %struct.student*, %struct.student** %2, align 8
  %71 = getelementptr inbounds %struct.student, %struct.student* %70, i32 0, i32 4
  %72 = load i8, i8* %71, align 1
  %73 = sext i8 %72 to i32
  %74 = icmp eq i32 %73, 89
  br i1 %74, label %75, label %78

75:                                               ; preds = %69
  %76 = load i32, i32* %6, align 4
  %77 = add nsw i32 %76, 1000
  store i32 %77, i32* %6, align 4
  br label %78

78:                                               ; preds = %75, %69, %64
  %79 = load %struct.student*, %struct.student** %2, align 8
  %80 = getelementptr inbounds %struct.student, %struct.student* %79, i32 0, i32 2
  %81 = load i32, i32* %80, align 4
  %82 = icmp sgt i32 %81, 80
  br i1 %82, label %83, label %92

83:                                               ; preds = %78
  %84 = load %struct.student*, %struct.student** %2, align 8
  %85 = getelementptr inbounds %struct.student, %struct.student* %84, i32 0, i32 3
  %86 = load i8, i8* %85, align 8
  %87 = sext i8 %86 to i32
  %88 = icmp eq i32 %87, 89
  br i1 %88, label %89, label %92

89:                                               ; preds = %83
  %90 = load i32, i32* %6, align 4
  %91 = add nsw i32 %90, 850
  store i32 %91, i32* %6, align 4
  br label %92

92:                                               ; preds = %89, %83, %78
  %93 = load i32, i32* %6, align 4
  %94 = load i32, i32* %5, align 4
  %95 = add nsw i32 %94, %93
  store i32 %95, i32* %5, align 4
  %96 = load i32, i32* %6, align 4
  %97 = load i32, i32* %7, align 4
  %98 = icmp sgt i32 %96, %97
  br i1 %98, label %99, label %108

99:                                               ; preds = %92
  %100 = load i32, i32* %6, align 4
  store i32 %100, i32* %7, align 4
  %101 = getelementptr inbounds [21 x i8], [21 x i8]* %8, i64 0, i64 0
  %102 = call i8* @strcpy(i8* %101, i8* getelementptr inbounds ([1 x i8], [1 x i8]* @.str.2, i64 0, i64 0)) #3
  %103 = getelementptr inbounds [21 x i8], [21 x i8]* %8, i64 0, i64 0
  %104 = load %struct.student*, %struct.student** %2, align 8
  %105 = getelementptr inbounds %struct.student, %struct.student* %104, i32 0, i32 0
  %106 = getelementptr inbounds [21 x i8], [21 x i8]* %105, i64 0, i64 0
  %107 = call i8* @strcpy(i8* %103, i8* %106) #3
  br label %108

108:                                              ; preds = %99, %92
  %109 = load %struct.student*, %struct.student** %2, align 8
  %110 = bitcast %struct.student* %109 to i8*
  call void @free(i8* %110) #3
  br label %111

111:                                              ; preds = %108
  %112 = load i32, i32* %4, align 4
  %113 = add nsw i32 %112, 1
  store i32 %113, i32* %4, align 4
  br label %10

114:                                              ; preds = %10
  %115 = getelementptr inbounds [21 x i8], [21 x i8]* %8, i64 0, i64 0
  %116 = load i32, i32* %7, align 4
  %117 = load i32, i32* %5, align 4
  %118 = call i32 (i8*, ...) @printf(i8* getelementptr inbounds ([9 x i8], [9 x i8]* @.str.3, i64 0, i64 0), i8* %115, i32 %116, i32 %117)
  ret i32 0
}

declare dso_local i32 @__isoc99_scanf(i8*, ...) #1

; Function Attrs: nounwind
declare dso_local noalias i8* @malloc(i64) #2

; Function Attrs: nounwind
declare dso_local i8* @strcpy(i8*, i8*) #2

; Function Attrs: nounwind
declare dso_local void @free(i8*) #2

declare dso_local i32 @printf(i8*, ...) #1


!llvm.module.flags = !{!0}
!llvm.ident = !{!1}

!0 = !{i32 1, !"wchar_size", i32 4}
!1 = !{!"clang version 10.0.0-4ubuntu1 "}
