; ModuleID = 'source-C-CXX/38/1857.c'
source_filename = "source-C-CXX/38/1857.c"
target datalayout = "e-m:e-p270:32:32-p271:32:32-p272:64:64-i64:64-f80:128-n8:16:32:64-S128"
target triple = "x86_64-pc-linux-gnu"

%struct.student = type { [21 x i8], i32, i32, i8, i8, i32, %struct.student*, %struct.student* }

@.str = private unnamed_addr constant [3 x i8] c"%d\00", align 1
@.str.1 = private unnamed_addr constant [15 x i8] c"%s%d%d %c %c%d\00", align 1
@.str.3 = private unnamed_addr constant [9 x i8] c"%s\0A%d\0A%d\00", align 1

; Function Attrs: nounwind sspstrong uwtable
define dso_local i32 @main() local_unnamed_addr #0 {
  %1 = alloca i32, align 4
  %2 = alloca [21 x i8], align 16
  %3 = bitcast i32* %1 to i8*
  call void @llvm.lifetime.start.p0i8(i64 4, i8* nonnull %3) #6
  %4 = getelementptr inbounds [21 x i8], [21 x i8]* %2, i64 0, i64 0
  call void @llvm.lifetime.start.p0i8(i64 21, i8* nonnull %4) #6
  %5 = call i32 (i8*, ...) @__isoc99_scanf(i8* getelementptr inbounds ([3 x i8], [3 x i8]* @.str, i64 0, i64 0), i32* nonnull %1)
  %6 = load i32, i32* %1, align 4, !tbaa !5
  %7 = icmp sgt i32 %6, 0
  br i1 %7, label %8, label %60

8:                                                ; preds = %0, %55
  %9 = phi i32 [ %56, %55 ], [ 0, %0 ]
  %10 = phi i32 [ %51, %55 ], [ 0, %0 ]
  %11 = phi i32 [ %57, %55 ], [ 0, %0 ]
  %12 = call noalias align 16 dereferenceable_or_null(56) i8* @malloc(i64 56) #6
  %13 = bitcast i8* %12 to %struct.student*
  %14 = getelementptr inbounds %struct.student, %struct.student* %13, i64 0, i32 0, i64 0
  %15 = getelementptr inbounds %struct.student, %struct.student* %13, i64 0, i32 1
  %16 = getelementptr inbounds %struct.student, %struct.student* %13, i64 0, i32 2
  %17 = getelementptr inbounds %struct.student, %struct.student* %13, i64 0, i32 3
  %18 = getelementptr inbounds %struct.student, %struct.student* %13, i64 0, i32 4
  %19 = getelementptr inbounds %struct.student, %struct.student* %13, i64 0, i32 5
  %20 = call i32 (i8*, ...) @__isoc99_scanf(i8* getelementptr inbounds ([15 x i8], [15 x i8]* @.str.1, i64 0, i64 0), i8* %14, i32* nonnull %15, i32* nonnull %16, i8* nonnull %17, i8* nonnull %18, i32* nonnull %19)
  %21 = load i32, i32* %15, align 8, !tbaa !9
  %22 = icmp sgt i32 %21, 80
  br i1 %22, label %23, label %40

23:                                               ; preds = %8
  %24 = load i32, i32* %19, align 4, !tbaa !12
  %25 = icmp sgt i32 %24, 0
  %26 = select i1 %25, i32 8000, i32 0
  %27 = icmp sgt i32 %21, 85
  br i1 %27, label %28, label %40

28:                                               ; preds = %23
  %29 = load i32, i32* %16, align 4, !tbaa !13
  %30 = icmp sgt i32 %29, 80
  %31 = add nuw nsw i32 %26, 4000
  %32 = select i1 %30, i32 %31, i32 %26
  %33 = icmp sgt i32 %21, 90
  %34 = add nuw nsw i32 %32, 2000
  %35 = select i1 %33, i32 %34, i32 %32
  %36 = load i8, i8* %18, align 1, !tbaa !14
  %37 = icmp eq i8 %36, 89
  %38 = add nuw nsw i32 %35, 1000
  %39 = select i1 %37, i32 %38, i32 %35
  br label %40

40:                                               ; preds = %8, %23, %28
  %41 = phi i32 [ %39, %28 ], [ %26, %23 ], [ 0, %8 ]
  %42 = load i32, i32* %16, align 4, !tbaa !13
  %43 = icmp sgt i32 %42, 80
  br i1 %43, label %44, label %49

44:                                               ; preds = %40
  %45 = load i8, i8* %17, align 16, !tbaa !15
  %46 = icmp eq i8 %45, 89
  %47 = add nuw nsw i32 %41, 850
  %48 = select i1 %46, i32 %47, i32 %41
  br label %49

49:                                               ; preds = %44, %40
  %50 = phi i32 [ %41, %40 ], [ %48, %44 ]
  %51 = add nsw i32 %50, %10
  %52 = icmp sgt i32 %50, %9
  br i1 %52, label %53, label %55

53:                                               ; preds = %49
  store i8 0, i8* %4, align 16
  %54 = call i8* @strcpy(i8* noundef nonnull %4, i8* noundef nonnull dereferenceable(1) %14) #6
  br label %55

55:                                               ; preds = %53, %49
  %56 = phi i32 [ %50, %53 ], [ %9, %49 ]
  call void @free(i8* nonnull %12) #6
  %57 = add nuw nsw i32 %11, 1
  %58 = load i32, i32* %1, align 4, !tbaa !5
  %59 = icmp slt i32 %57, %58
  br i1 %59, label %8, label %60, !llvm.loop !16

60:                                               ; preds = %55, %0
  %61 = phi i32 [ 0, %0 ], [ %51, %55 ]
  %62 = phi i32 [ 0, %0 ], [ %56, %55 ]
  %63 = call i32 (i8*, ...) @printf(i8* nonnull dereferenceable(1) getelementptr inbounds ([9 x i8], [9 x i8]* @.str.3, i64 0, i64 0), i8* nonnull %4, i32 %62, i32 %61)
  call void @llvm.lifetime.end.p0i8(i64 21, i8* nonnull %4) #6
  call void @llvm.lifetime.end.p0i8(i64 4, i8* nonnull %3) #6
  ret i32 0
}

; Function Attrs: argmemonly mustprogress nofree nosync nounwind willreturn
declare void @llvm.lifetime.start.p0i8(i64 immarg, i8* nocapture) #1

; Function Attrs: nofree nounwind
declare noundef i32 @__isoc99_scanf(i8* nocapture noundef readonly, ...) local_unnamed_addr #2

; Function Attrs: inaccessiblememonly mustprogress nofree nounwind willreturn
declare noalias noundef align 16 i8* @malloc(i64 noundef) local_unnamed_addr #3

; Function Attrs: argmemonly mustprogress nofree nounwind willreturn
declare i8* @strcpy(i8* noalias returned writeonly, i8* noalias nocapture readonly) local_unnamed_addr #4

; Function Attrs: inaccessiblemem_or_argmemonly mustprogress nounwind willreturn
declare void @free(i8* nocapture noundef) local_unnamed_addr #5

; Function Attrs: nofree nounwind
declare noundef i32 @printf(i8* nocapture noundef readonly, ...) local_unnamed_addr #2

; Function Attrs: argmemonly mustprogress nofree nosync nounwind willreturn
declare void @llvm.lifetime.end.p0i8(i64 immarg, i8* nocapture) #1


!llvm.module.flags = !{!0, !1, !2, !3}
!llvm.ident = !{!4}

!0 = !{i32 1, !"wchar_size", i32 4}
!1 = !{i32 7, !"PIC Level", i32 2}
!2 = !{i32 7, !"PIE Level", i32 2}
!3 = !{i32 7, !"uwtable", i32 1}
!4 = !{!"clang version 13.0.0"}
!5 = !{!6, !6, i64 0}
!6 = !{!"int", !7, i64 0}
!7 = !{!"omnipotent char", !8, i64 0}
!8 = !{!"Simple C/C++ TBAA"}
!9 = !{!10, !6, i64 24}
!10 = !{!"student", !7, i64 0, !6, i64 24, !6, i64 28, !7, i64 32, !7, i64 33, !6, i64 36, !11, i64 40, !11, i64 48}
!11 = !{!"any pointer", !7, i64 0}
!12 = !{!10, !6, i64 36}
!13 = !{!10, !6, i64 28}
!14 = !{!10, !7, i64 33}
!15 = !{!10, !7, i64 32}
!16 = distinct !{!16, !17}
!17 = !{!"llvm.loop.mustprogress"}
